target datalayout = "e-m:e-p270:32:32-p271:32:32-p272:64:64-i64:64-i128:128-f80:128-n8:16:32:64-S128"
target triple = "x86_64-pc-linux-gnu"

%"class.std::__cxx11::basic_string" = type { %"struct.std::__cxx11::basic_string<char>::_Alloc_hider", i64, %union.anon }
%"struct.std::__cxx11::basic_string<char>::_Alloc_hider" = type { ptr }
%union.anon = type { i64, [8 x i8] }
%"struct.net::QuicGoAwayFrame" = type { i32, i32, %"class.std::__cxx11::basic_string" }
%"class.base::BasicStringPiece" = type { ptr, i64 }

; Function Attrs: mustprogress nounwind uwtable
define available_externally noundef ptr @_ZNKSt7__cxx1112basic_stringIcSt11char_traitsIcESaIcEE7_M_dataEv(ptr noundef nonnull align 8 dereferenceable(32) %0) #1 align 2 {
  %2 = alloca ptr, align 8
  store ptr %0, ptr %2, align 8, !tbaa !66
  %3 = load ptr, ptr %2, align 8
  %4 = getelementptr inbounds nuw %"class.std::__cxx11::basic_string", ptr %3, i32 0, i32 0
  %5 = getelementptr inbounds nuw %"struct.std::__cxx11::basic_string<char>::_Alloc_hider", ptr %4, i32 0, i32 0
  %6 = load ptr, ptr %5, align 8, !tbaa !540
  ret ptr %6
}

; Function Attrs: mustprogress nounwind uwtable
define available_externally noundef i64 @_ZNKSt7__cxx1112basic_stringIcSt11char_traitsIcESaIcEE4sizeEv(ptr noundef nonnull align 8 dereferenceable(32) %0) #1 align 2 {
  %2 = alloca ptr, align 8
  store ptr %0, ptr %2, align 8, !tbaa !66
  %3 = load ptr, ptr %2, align 8
  %4 = getelementptr inbounds nuw %"class.std::__cxx11::basic_string", ptr %3, i32 0, i32 1
  %5 = load i64, ptr %4, align 8, !tbaa !368
  ret i64 %5
}

; Function Attrs: mustprogress nounwind uwtable
define available_externally noundef ptr @_ZNKSt7__cxx1112basic_stringIcSt11char_traitsIcESaIcEE4dataEv(ptr noundef nonnull align 8 dereferenceable(32) %0) #1 align 2 {
  %2 = alloca ptr, align 8
  store ptr %0, ptr %2, align 8, !tbaa !66
  %3 = load ptr, ptr %2, align 8
  %4 = call noundef ptr @_ZNKSt7__cxx1112basic_stringIcSt11char_traitsIcESaIcEE7_M_dataEv(ptr noundef nonnull align 8 dereferenceable(32) %3)
  ret ptr %4
}

; Function Attrs: mustprogress nounwind uwtable
define available_externally void @_ZN4base16BasicStringPieceINSt7__cxx1112basic_stringIcSt11char_traitsIcESaIcEEEEC2ERKS6_(ptr noundef nonnull align 8 dereferenceable(16) %0, ptr noundef nonnull align 8 dereferenceable(32) %1) unnamed_addr #1 align 2 {
  %3 = alloca ptr, align 8
  %4 = alloca ptr, align 8
  store ptr %0, ptr %3, align 8, !tbaa !276
  store ptr %1, ptr %4, align 8, !tbaa !66
  %5 = load ptr, ptr %3, align 8
  %6 = getelementptr inbounds nuw %"class.base::BasicStringPiece", ptr %5, i32 0, i32 0
  %7 = load ptr, ptr %4, align 8, !tbaa !66
  %8 = call noundef ptr @_ZNKSt7__cxx1112basic_stringIcSt11char_traitsIcESaIcEE4dataEv(ptr noundef nonnull align 8 dereferenceable(32) %7) #17
  store ptr %8, ptr %6, align 8, !tbaa !278
  %9 = getelementptr inbounds nuw %"class.base::BasicStringPiece", ptr %5, i32 0, i32 1
  %10 = load ptr, ptr %4, align 8, !tbaa !66
  %11 = call noundef i64 @_ZNKSt7__cxx1112basic_stringIcSt11char_traitsIcESaIcEE4sizeEv(ptr noundef nonnull align 8 dereferenceable(32) %10) #17
  store i64 %11, ptr %9, align 8, !tbaa !280
  ret void
}

; Function Attrs: mustprogress uwtable
define noundef zeroext i1 @_ZN3net10QuicFramer17AppendGoAwayFrameERKNS_15QuicGoAwayFrameEPNS_14QuicDataWriterE(ptr noundef nonnull align 8 dereferenceable(408) %0, ptr noundef nonnull align 8 dereferenceable(40) %1, ptr noundef %2) #0 align 2 {
  %4 = alloca i1, align 1
  %5 = alloca ptr, align 8
  %6 = alloca ptr, align 8
  %7 = alloca ptr, align 8
  %8 = alloca i32, align 4
  %9 = alloca i32, align 4
  %10 = alloca i32, align 4
  %11 = alloca %"class.base::BasicStringPiece", align 8
  store ptr %0, ptr %5, align 8, !tbaa !3
  store ptr %1, ptr %6, align 8, !tbaa !223
  store ptr %2, ptr %7, align 8, !tbaa !160
  call void @llvm.lifetime.start.p0(i64 4, ptr %8) #17
  %12 = load ptr, ptr %6, align 8, !tbaa !223
  %13 = getelementptr inbounds nuw %"struct.net::QuicGoAwayFrame", ptr %12, i32 0, i32 0
  %14 = load i32, ptr %13, align 8, !tbaa !225
  store i32 %14, ptr %8, align 4, !tbaa !85
  %15 = load ptr, ptr %7, align 8, !tbaa !160
  %16 = load i32, ptr %8, align 4, !tbaa !85
  %17 = call noundef zeroext i1 @_ZN3net14QuicDataWriter11WriteUInt32Ej(ptr noundef nonnull align 8 dereferenceable(24) %15, i32 noundef %16)
  br i1 %17, label %19, label %18

18:                                               ; preds = %3
  store i1 false, ptr %4, align 1
  store i32 1, ptr %9, align 4
  br label %40

19:                                               ; preds = %3
  call void @llvm.lifetime.start.p0(i64 4, ptr %10) #17
  %20 = load ptr, ptr %6, align 8, !tbaa !223
  %21 = getelementptr inbounds nuw %"struct.net::QuicGoAwayFrame", ptr %20, i32 0, i32 1
  %22 = load i32, ptr %21, align 4, !tbaa !227
  store i32 %22, ptr %10, align 4, !tbaa !85
  %23 = load ptr, ptr %7, align 8, !tbaa !160
  %24 = load i32, ptr %10, align 4, !tbaa !85
  %25 = call noundef zeroext i1 @_ZN3net14QuicDataWriter11WriteUInt32Ej(ptr noundef nonnull align 8 dereferenceable(24) %23, i32 noundef %24)
  br i1 %25, label %27, label %26

26:                                               ; preds = %19
  store i1 false, ptr %4, align 1
  store i32 1, ptr %9, align 4
  br label %39

27:                                               ; preds = %19
  %28 = load ptr, ptr %7, align 8, !tbaa !160
  %29 = load ptr, ptr %6, align 8, !tbaa !223
  %30 = getelementptr inbounds nuw %"struct.net::QuicGoAwayFrame", ptr %29, i32 0, i32 2
  call void @_ZN4base16BasicStringPieceINSt7__cxx1112basic_stringIcSt11char_traitsIcESaIcEEEEC2ERKS6_(ptr noundef nonnull align 8 dereferenceable(16) %11, ptr noundef nonnull align 8 dereferenceable(32) %30)
  %31 = getelementptr inbounds nuw { ptr, i64 }, ptr %11, i32 0, i32 0
  %32 = load ptr, ptr %31, align 8
  %33 = getelementptr inbounds nuw { ptr, i64 }, ptr %11, i32 0, i32 1
  %34 = load i64, ptr %33, align 8
  %35 = call noundef zeroext i1 @_ZN3net14QuicDataWriter18WriteStringPiece16EN4base16BasicStringPieceINSt7__cxx1112basic_stringIcSt11char_traitsIcESaIcEEEEE(ptr noundef nonnull align 8 dereferenceable(24) %28, ptr %32, i64 %34)
  %36 = xor i1 %35, true
  br i1 %36, label %37, label %38

37:                                               ; preds = %27
  store i1 false, ptr %4, align 1
  store i32 1, ptr %9, align 4
  br label %39

38:                                               ; preds = %27
  store i1 true, ptr %4, align 1
  store i32 1, ptr %9, align 4
  br label %39

39:                                               ; preds = %38, %37, %26
  call void @llvm.lifetime.end.p0(i64 4, ptr %10) #17
  br label %40

40:                                               ; preds = %39, %18
  call void @llvm.lifetime.end.p0(i64 4, ptr %8) #17
  %41 = load i1, ptr %4, align 1
  ret i1 %41
}