; Function Attrs: mustprogress uwtable
define noundef zeroext i1 @_ZN3net10QuicFramer17AppendGoAwayFrameERKNS_15QuicGoAwayFrameEPNS_14QuicDataWriterE(ptr noundef nonnull readnone align 8 captures(none) dereferenceable(408) %0, ptr noundef nonnull readonly align 8 captures(none) dereferenceable(40) %1, ptr noundef nonnull %2) local_unnamed_addr #0 align 2 {
  %4 = load i32, ptr %1, align 8, !tbaa !156
  %5 = tail call noundef zeroext i1 @_ZN3net14QuicDataWriter11WriteUInt32Ej(ptr noundef nonnull align 8 dereferenceable(24) %2, i32 noundef %4)
  br i1 %5, label %6, label %16

6:                                                ; preds = %3
  %7 = getelementptr inbounds nuw i8, ptr %1, i64 4
  %8 = load i32, ptr %7, align 4, !tbaa !158
  %9 = tail call noundef zeroext i1 @_ZN3net14QuicDataWriter11WriteUInt32Ej(ptr noundef nonnull align 8 dereferenceable(24) %2, i32 noundef %8)
  br i1 %9, label %10, label %16

10:                                               ; preds = %6
  %11 = getelementptr inbounds nuw i8, ptr %1, i64 8
  %12 = load ptr, ptr %11, align 8, !tbaa !70
  %13 = getelementptr inbounds nuw i8, ptr %1, i64 16
  %14 = load i64, ptr %13, align 8, !tbaa !11
  %15 = tail call noundef zeroext i1 @_ZN3net14QuicDataWriter18WriteStringPiece16EN4base16BasicStringPieceINSt7__cxx1112basic_stringIcSt11char_traitsIcESaIcEEEEE(ptr noundef nonnull align 8 dereferenceable(24) %2, ptr %12, i64 %14)
  br label %16

16:                                               ; preds = %6, %10, %3
  %.0 = phi i1 [ false, %3 ], [ false, %6 ], [ %15, %10 ]
  ret i1 %.0
}